; Function Attrs: nofree norecurse nosync nounwind memory(argmem: readwrite) uwtable
define hidden void @cfl_subsample_lbd_420_16x16_c(ptr nocapture noundef readonly %0, i32 noundef %1, ptr nocapture noundef writeonly %2) #5 {
  %invariant.op.i = add i32 %1, 1
  %4 = shl i32 %1, 1
  %5 = sext i32 %4 to i64
  %6 = sext i32 %1 to i64
  br label %.preheader.us.i

.preheader.us.i:                                  ; preds = %._crit_edge.us.i, %3
  %.026.us.i = phi ptr [ %31, %._crit_edge.us.i ], [ %0, %3 ]
  %.02125.us.i = phi i32 [ %33, %._crit_edge.us.i ], [ 0, %3 ]
  %.02224.us.i = phi ptr [ %32, %._crit_edge.us.i ], [ %2, %3 ]
  br label %7

7:                                                ; preds = %7, %.preheader.us.i
  %indvars.iv.i = phi i64 [ 0, %.preheader.us.i ], [ %indvars.iv.next.i, %7 ]
  %8 = add nsw i64 %indvars.iv.i, %6
  %9 = getelementptr inbounds i8, ptr %.026.us.i, i64 %indvars.iv.i
  %10 = load i8, ptr %9, align 1
  %11 = zext i8 %10 to i16
  %12 = or disjoint i64 %indvars.iv.i, 1
  %13 = getelementptr inbounds i8, ptr %.026.us.i, i64 %12
  %14 = load i8, ptr %13, align 1
  %15 = zext i8 %14 to i16
  %16 = add nuw nsw i16 %15, %11
  %17 = getelementptr inbounds i8, ptr %.026.us.i, i64 %8
  %18 = load i8, ptr %17, align 1
  %19 = zext i8 %18 to i16
  %20 = add nuw nsw i16 %16, %19
  %21 = trunc nuw nsw i64 %indvars.iv.i to i32
  %.reass.us.i = add i32 %invariant.op.i, %21
  %22 = sext i32 %.reass.us.i to i64
  %23 = getelementptr inbounds i8, ptr %.026.us.i, i64 %22
  %24 = load i8, ptr %23, align 1
  %25 = zext i8 %24 to i16
  %26 = add nuw nsw i16 %20, %25
  %27 = shl nuw nsw i16 %26, 1
  %28 = lshr exact i64 %indvars.iv.i, 1
  %29 = getelementptr inbounds i16, ptr %.02224.us.i, i64 %28
  store i16 %27, ptr %29, align 2
  %indvars.iv.next.i = add nuw nsw i64 %indvars.iv.i, 2
  %30 = icmp ult i64 %indvars.iv.i, 14
  br i1 %30, label %7, label %._crit_edge.us.i, !llvm.loop !19

._crit_edge.us.i:                                 ; preds = %7
  %31 = getelementptr inbounds i8, ptr %.026.us.i, i64 %5
  %32 = getelementptr inbounds i8, ptr %.02224.us.i, i64 64
  %33 = add nuw nsw i32 %.02125.us.i, 2
  %34 = icmp ult i32 %.02125.us.i, 14
  br i1 %34, label %.preheader.us.i, label %cfl_luma_subsampling_420_lbd_c.exit, !llvm.loop !20

cfl_luma_subsampling_420_lbd_c.exit:              ; preds = %._crit_edge.us.i
  ret void
}